target datalayout = "e-m:e-p270:32:32-p271:32:32-p272:64:64-i64:64-i128:128-f80:128-n8:16:32:64-S128"
target triple = "x86_64-pc-linux-gnu"

%struct.attrs_t = type { ptr, i64, i64, i64 }
%struct.gmlattr = type { i16, i16, ptr, %union.anon }
%union.anon = type { ptr }

@.str.1 = private unnamed_addr constant [3 x i8] c"id\00", align 1
@stderr = external global ptr, align 8
@.str.8 = private unnamed_addr constant [58 x i8] c"integer overflow when trying to allocate %zu * %zu bytes\0A\00", align 1
@.str.9 = private unnamed_addr constant [49 x i8] c"out of memory when trying to allocate %zu bytes\0A\00", align 1
@.str.11 = private unnamed_addr constant [6 x i8] c"graph\00", align 1
@.str.12 = private unnamed_addr constant [5 x i8] c"node\00", align 1
@.str.13 = private unnamed_addr constant [5 x i8] c"edge\00", align 1
@.str.14 = private unnamed_addr constant [9 x i8] c"directed\00", align 1
@.str.15 = private unnamed_addr constant [7 x i8] c"source\00", align 1
@.str.16 = private unnamed_addr constant [7 x i8] c"target\00", align 1
@.str.17 = private unnamed_addr constant [5 x i8] c"xval\00", align 1
@.str.18 = private unnamed_addr constant [5 x i8] c"yval\00", align 1
@.str.19 = private unnamed_addr constant [5 x i8] c"wval\00", align 1
@.str.20 = private unnamed_addr constant [5 x i8] c"hval\00", align 1
@.str.21 = private unnamed_addr constant [6 x i8] c"label\00", align 1
@.str.22 = private unnamed_addr constant [9 x i8] c"graphics\00", align 1
@.str.23 = private unnamed_addr constant [14 x i8] c"labelGraphics\00", align 1
@.str.24 = private unnamed_addr constant [5 x i8] c"type\00", align 1
@.str.25 = private unnamed_addr constant [5 x i8] c"fill\00", align 1
@.str.26 = private unnamed_addr constant [8 x i8] c"outline\00", align 1
@.str.27 = private unnamed_addr constant [13 x i8] c"outlineStyle\00", align 1
@.str.28 = private unnamed_addr constant [13 x i8] c"outlineWidth\00", align 1
@.str.29 = private unnamed_addr constant [6 x i8] c"width\00", align 1
@.str.30 = private unnamed_addr constant [6 x i8] c"style\00", align 1
@.str.31 = private unnamed_addr constant [5 x i8] c"line\00", align 1
@.str.32 = private unnamed_addr constant [6 x i8] c"point\00", align 1
@.str.33 = private unnamed_addr constant [5 x i8] c"text\00", align 1
@.str.34 = private unnamed_addr constant [9 x i8] c"fontSize\00", align 1
@.str.35 = private unnamed_addr constant [9 x i8] c"fontName\00", align 1
@.str.36 = private unnamed_addr constant [6 x i8] c"color\00", align 1
@.str.37 = private unnamed_addr constant [8 x i8] c"integer\00", align 1
@.str.38 = private unnamed_addr constant [5 x i8] c"real\00", align 1
@.str.39 = private unnamed_addr constant [7 x i8] c"string\00", align 1
@.str.40 = private unnamed_addr constant [5 x i8] c"name\00", align 1
@.str.41 = private unnamed_addr constant [5 x i8] c"list\00", align 1
@.str.42 = private unnamed_addr constant [2 x i8] c"[\00", align 1
@.str.43 = private unnamed_addr constant [2 x i8] c"]\00", align 1

; Function Attrs: inlinehint nounwind uwtable
define internal i64 @attrs_size(ptr noundef %0) #1 {
  %2 = alloca ptr, align 8
  store ptr %0, ptr %2, align 8, !tbaa !4
  %3 = load ptr, ptr %2, align 8, !tbaa !4
  %4 = getelementptr inbounds nuw %struct.attrs_t, ptr %3, i32 0, i32 2
  %5 = load i64, ptr %4, align 8, !tbaa !58
  ret i64 %5
}

; Function Attrs: inlinehint nounwind uwtable
define internal ptr @gv_calloc(i64 noundef %0, i64 noundef %1) #1 {
  %3 = alloca i64, align 8
  %4 = alloca i64, align 8
  %5 = alloca ptr, align 8
  store i64 %0, ptr %3, align 8, !tbaa !20
  store i64 %1, ptr %4, align 8, !tbaa !20
  %6 = load i64, ptr %3, align 8, !tbaa !20
  %7 = icmp ugt i64 %6, 0
  br i1 %7, label %8, label %18

8:                                                ; preds = %2
  %9 = load i64, ptr %3, align 8, !tbaa !20
  %10 = udiv i64 -1, %9
  %11 = load i64, ptr %4, align 8, !tbaa !20
  %12 = icmp ult i64 %10, %11
  br i1 %12, label %13, label %18

13:                                               ; preds = %8
  %14 = load ptr, ptr @stderr, align 8, !tbaa !40
  %15 = load i64, ptr %3, align 8, !tbaa !20
  %16 = load i64, ptr %4, align 8, !tbaa !20
  %17 = call i32 (ptr, ptr, ...) @fprintf(ptr noundef %14, ptr noundef @.str.8, i64 noundef %15, i64 noundef %16) #15
  call void @graphviz_exit(i32 noundef 1) #17
  unreachable

18:                                               ; preds = %8, %2
  call void @llvm.lifetime.start.p0(i64 8, ptr %5) #15
  %19 = load i64, ptr %3, align 8, !tbaa !20
  %20 = load i64, ptr %4, align 8, !tbaa !20
  %21 = call noalias ptr @calloc(i64 noundef %19, i64 noundef %20) #19
  store ptr %21, ptr %5, align 8, !tbaa !4
  %22 = load i64, ptr %3, align 8, !tbaa !20
  %23 = icmp ugt i64 %22, 0
  br i1 %23, label %24, label %36

24:                                               ; preds = %18
  %25 = load i64, ptr %4, align 8, !tbaa !20
  %26 = icmp ugt i64 %25, 0
  br i1 %26, label %27, label %36

27:                                               ; preds = %24
  %28 = load ptr, ptr %5, align 8, !tbaa !4
  %29 = icmp eq ptr %28, null
  br i1 %29, label %30, label %36

30:                                               ; preds = %27
  %31 = load ptr, ptr @stderr, align 8, !tbaa !40
  %32 = load i64, ptr %3, align 8, !tbaa !20
  %33 = load i64, ptr %4, align 8, !tbaa !20
  %34 = mul i64 %32, %33
  %35 = call i32 (ptr, ptr, ...) @fprintf(ptr noundef %31, ptr noundef @.str.9, i64 noundef %34) #15
  call void @graphviz_exit(i32 noundef 1) #17
  unreachable

36:                                               ; preds = %27, %24, %18
  %37 = load ptr, ptr %5, align 8, !tbaa !4
  call void @llvm.lifetime.end.p0(i64 8, ptr %5) #15
  ret ptr %37
}

; Function Attrs: nounwind uwtable
define internal void @free_attrs(ptr noundef %0) #0 {
  %2 = alloca ptr, align 8
  store ptr %0, ptr %2, align 8, !tbaa !4
  %3 = load ptr, ptr %2, align 8, !tbaa !4
  call void @attrs_free(ptr noundef %3)
  %4 = load ptr, ptr %2, align 8, !tbaa !4
  call void @free(ptr noundef %4) #15
  ret void
}

; Function Attrs: inlinehint nounwind uwtable
define internal zeroext i1 @attrs_is_empty(ptr noundef %0) #1 {
  %2 = alloca ptr, align 8
  store ptr %0, ptr %2, align 8, !tbaa !4
  %3 = load ptr, ptr %2, align 8, !tbaa !4
  %4 = call i64 @attrs_size(ptr noundef %3)
  %5 = icmp eq i64 %4, 0
  ret i1 %5
}

; Function Attrs: inlinehint nounwind uwtable
define internal ptr @gv_strdup(ptr noundef %0) #1 {
  %2 = alloca ptr, align 8
  %3 = alloca ptr, align 8
  store ptr %0, ptr %2, align 8, !tbaa !21
  call void @llvm.lifetime.start.p0(i64 8, ptr %3) #15
  %4 = load ptr, ptr %2, align 8, !tbaa !21
  %5 = call noalias ptr @strdup(ptr noundef %4) #15
  store ptr %5, ptr %3, align 8, !tbaa !21
  %6 = load ptr, ptr %3, align 8, !tbaa !21
  %7 = icmp eq ptr %6, null
  br i1 %7, label %8, label %14

8:                                                ; preds = %1
  %9 = load ptr, ptr @stderr, align 8, !tbaa !40
  %10 = load ptr, ptr %2, align 8, !tbaa !21
  %11 = call i64 @strlen(ptr noundef %10) #18
  %12 = add i64 %11, 1
  %13 = call i32 (ptr, ptr, ...) @fprintf(ptr noundef %9, ptr noundef @.str.9, i64 noundef %12) #15
  call void @graphviz_exit(i32 noundef 1) #17
  unreachable

14:                                               ; preds = %1
  %15 = load ptr, ptr %3, align 8, !tbaa !21
  call void @llvm.lifetime.end.p0(i64 8, ptr %3) #15
  ret ptr %15
}

; Function Attrs: nounwind uwtable
define internal ptr @sortToStr(i16 noundef zeroext %0) #0 {
  %2 = alloca i16, align 2
  %3 = alloca ptr, align 8
  store i16 %0, ptr %2, align 2, !tbaa !28
  call void @llvm.lifetime.start.p0(i64 8, ptr %3) #15
  %4 = load i16, ptr %2, align 2, !tbaa !28
  %5 = zext i16 %4 to i32
  switch i32 %5, label %40 [
    i32 258, label %6
    i32 259, label %7
    i32 260, label %8
    i32 261, label %9
    i32 287, label %10
    i32 262, label %11
    i32 263, label %12
    i32 264, label %13
    i32 265, label %14
    i32 266, label %15
    i32 267, label %16
    i32 268, label %17
    i32 269, label %18
    i32 270, label %19
    i32 271, label %20
    i32 272, label %21
    i32 273, label %22
    i32 274, label %23
    i32 275, label %24
    i32 276, label %25
    i32 277, label %26
    i32 278, label %27
    i32 279, label %28
    i32 280, label %29
    i32 281, label %30
    i32 282, label %31
    i32 283, label %32
    i32 284, label %33
    i32 285, label %34
    i32 286, label %35
    i32 288, label %36
    i32 289, label %37
    i32 91, label %38
    i32 93, label %39
  ]

6:                                                ; preds = %1
  store ptr @.str.11, ptr %3, align 8, !tbaa !21
  br label %41

7:                                                ; preds = %1
  store ptr @.str.12, ptr %3, align 8, !tbaa !21
  br label %41

8:                                                ; preds = %1
  store ptr @.str.13, ptr %3, align 8, !tbaa !21
  br label %41

9:                                                ; preds = %1
  store ptr @.str.14, ptr %3, align 8, !tbaa !21
  br label %41

10:                                               ; preds = %1
  store ptr @.str.1, ptr %3, align 8, !tbaa !21
  br label %41

11:                                               ; preds = %1
  store ptr @.str.15, ptr %3, align 8, !tbaa !21
  br label %41

12:                                               ; preds = %1
  store ptr @.str.16, ptr %3, align 8, !tbaa !21
  br label %41

13:                                               ; preds = %1
  store ptr @.str.17, ptr %3, align 8, !tbaa !21
  br label %41

14:                                               ; preds = %1
  store ptr @.str.18, ptr %3, align 8, !tbaa !21
  br label %41

15:                                               ; preds = %1
  store ptr @.str.19, ptr %3, align 8, !tbaa !21
  br label %41

16:                                               ; preds = %1
  store ptr @.str.20, ptr %3, align 8, !tbaa !21
  br label %41

17:                                               ; preds = %1
  store ptr @.str.21, ptr %3, align 8, !tbaa !21
  br label %41

18:                                               ; preds = %1
  store ptr @.str.22, ptr %3, align 8, !tbaa !21
  br label %41

19:                                               ; preds = %1
  store ptr @.str.23, ptr %3, align 8, !tbaa !21
  br label %41

20:                                               ; preds = %1
  store ptr @.str.24, ptr %3, align 8, !tbaa !21
  br label %41

21:                                               ; preds = %1
  store ptr @.str.25, ptr %3, align 8, !tbaa !21
  br label %41

22:                                               ; preds = %1
  store ptr @.str.26, ptr %3, align 8, !tbaa !21
  br label %41

23:                                               ; preds = %1
  store ptr @.str.27, ptr %3, align 8, !tbaa !21
  br label %41

24:                                               ; preds = %1
  store ptr @.str.28, ptr %3, align 8, !tbaa !21
  br label %41

25:                                               ; preds = %1
  store ptr @.str.29, ptr %3, align 8, !tbaa !21
  br label %41

26:                                               ; preds = %1
  store ptr @.str.30, ptr %3, align 8, !tbaa !21
  br label %41

27:                                               ; preds = %1
  store ptr @.str.31, ptr %3, align 8, !tbaa !21
  br label %41

28:                                               ; preds = %1
  store ptr @.str.32, ptr %3, align 8, !tbaa !21
  br label %41

29:                                               ; preds = %1
  store ptr @.str.33, ptr %3, align 8, !tbaa !21
  br label %41

30:                                               ; preds = %1
  store ptr @.str.34, ptr %3, align 8, !tbaa !21
  br label %41

31:                                               ; preds = %1
  store ptr @.str.35, ptr %3, align 8, !tbaa !21
  br label %41

32:                                               ; preds = %1
  store ptr @.str.36, ptr %3, align 8, !tbaa !21
  br label %41

33:                                               ; preds = %1
  store ptr @.str.37, ptr %3, align 8, !tbaa !21
  br label %41

34:                                               ; preds = %1
  store ptr @.str.38, ptr %3, align 8, !tbaa !21
  br label %41

35:                                               ; preds = %1
  store ptr @.str.39, ptr %3, align 8, !tbaa !21
  br label %41

36:                                               ; preds = %1
  store ptr @.str.40, ptr %3, align 8, !tbaa !21
  br label %41

37:                                               ; preds = %1
  store ptr @.str.41, ptr %3, align 8, !tbaa !21
  br label %41

38:                                               ; preds = %1
  store ptr @.str.42, ptr %3, align 8, !tbaa !21
  br label %41

39:                                               ; preds = %1
  store ptr @.str.43, ptr %3, align 8, !tbaa !21
  br label %41

40:                                               ; preds = %1
  store ptr null, ptr %3, align 8, !tbaa !21
  br label %41

41:                                               ; preds = %40, %39, %38, %37, %36, %35, %34, %33, %32, %31, %30, %29, %28, %27, %26, %25, %24, %23, %22, %21, %20, %19, %18, %17, %16, %15, %14, %13, %12, %11, %10, %9, %8, %7, %6
  %42 = load ptr, ptr %3, align 8, !tbaa !21
  call void @llvm.lifetime.end.p0(i64 8, ptr %3) #15
  ret ptr %42
}

; Function Attrs: inlinehint nounwind uwtable
define internal ptr @gv_alloc(i64 noundef %0) #1 {
  %2 = alloca i64, align 8
  store i64 %0, ptr %2, align 8, !tbaa !20
  %3 = load i64, ptr %2, align 8, !tbaa !20
  %4 = call ptr @gv_calloc(i64 noundef 1, i64 noundef %3)
  ret ptr %4
}

; Function Attrs: nounwind uwtable
define internal ptr @mkAttr(ptr noundef %0, i16 noundef zeroext %1, i16 noundef zeroext %2, ptr noundef %3, ptr noundef %4) #0 {
  %6 = alloca ptr, align 8
  %7 = alloca i16, align 2
  %8 = alloca i16, align 2
  %9 = alloca ptr, align 8
  %10 = alloca ptr, align 8
  %11 = alloca ptr, align 8
  store ptr %0, ptr %6, align 8, !tbaa !21
  store i16 %1, ptr %7, align 2, !tbaa !28
  store i16 %2, ptr %8, align 2, !tbaa !28
  store ptr %3, ptr %9, align 8, !tbaa !21
  store ptr %4, ptr %10, align 8, !tbaa !4
  call void @llvm.lifetime.start.p0(i64 8, ptr %11) #15
  %12 = call ptr @gv_alloc(i64 noundef 24)
  store ptr %12, ptr %11, align 8, !tbaa !4
  %13 = load ptr, ptr %6, align 8, !tbaa !21
  %14 = icmp ne ptr %13, null
  br i1 %14, label %19, label %15

15:                                               ; preds = %5
  %16 = load i16, ptr %7, align 2, !tbaa !28
  %17 = call ptr @sortToStr(i16 noundef zeroext %16)
  %18 = call ptr @gv_strdup(ptr noundef %17)
  store ptr %18, ptr %6, align 8, !tbaa !21
  br label %19

19:                                               ; preds = %15, %5
  %20 = load i16, ptr %7, align 2, !tbaa !28
  %21 = load ptr, ptr %11, align 8, !tbaa !4
  %22 = getelementptr inbounds nuw %struct.gmlattr, ptr %21, i32 0, i32 1
  store i16 %20, ptr %22, align 2, !tbaa !43
  %23 = load i16, ptr %8, align 2, !tbaa !28
  %24 = load ptr, ptr %11, align 8, !tbaa !4
  %25 = getelementptr inbounds nuw %struct.gmlattr, ptr %24, i32 0, i32 0
  store i16 %23, ptr %25, align 8, !tbaa !45
  %26 = load ptr, ptr %6, align 8, !tbaa !21
  %27 = load ptr, ptr %11, align 8, !tbaa !4
  %28 = getelementptr inbounds nuw %struct.gmlattr, ptr %27, i32 0, i32 2
  store ptr %26, ptr %28, align 8, !tbaa !46
  %29 = load ptr, ptr %9, align 8, !tbaa !21
  %30 = icmp ne ptr %29, null
  br i1 %30, label %31, label %35

31:                                               ; preds = %19
  %32 = load ptr, ptr %9, align 8, !tbaa !21
  %33 = load ptr, ptr %11, align 8, !tbaa !4
  %34 = getelementptr inbounds nuw %struct.gmlattr, ptr %33, i32 0, i32 3
  store ptr %32, ptr %34, align 8, !tbaa !25
  br label %47

35:                                               ; preds = %19
  %36 = load ptr, ptr %10, align 8, !tbaa !4
  %37 = icmp ne ptr %36, null
  br i1 %37, label %38, label %43

38:                                               ; preds = %35
  %39 = load ptr, ptr %10, align 8, !tbaa !4
  %40 = call zeroext i1 @attrs_is_empty(ptr noundef %39)
  br i1 %40, label %41, label %43

41:                                               ; preds = %38
  %42 = load ptr, ptr %10, align 8, !tbaa !4
  call void @free_attrs(ptr noundef %42)
  store ptr null, ptr %10, align 8, !tbaa !4
  br label %43

43:                                               ; preds = %41, %38, %35
  %44 = load ptr, ptr %10, align 8, !tbaa !4
  %45 = load ptr, ptr %11, align 8, !tbaa !4
  %46 = getelementptr inbounds nuw %struct.gmlattr, ptr %45, i32 0, i32 3
  store ptr %44, ptr %46, align 8, !tbaa !25
  br label %47

47:                                               ; preds = %43, %31
  %48 = load ptr, ptr %11, align 8, !tbaa !4
  call void @llvm.lifetime.end.p0(i64 8, ptr %11) #15
  ret ptr %48
}