; Function Attrs: nounwind uwtable
define internal fastcc noalias noundef ptr @mkAttr(ptr noundef %0, i16 noundef zeroext %1, i16 noundef zeroext range(i16 284, 290) %2, ptr noundef %3, ptr noundef %4) unnamed_addr #0 {
  %6 = tail call noalias dereferenceable_or_null(24) ptr @calloc(i64 noundef 1, i64 noundef range(i64 1, 121) 24) #22
  %7 = icmp eq ptr %6, null
  br i1 %7, label %8, label %gv_alloc.exit

8:                                                ; preds = %5
  %9 = load ptr, ptr @stderr, align 8, !tbaa !39
  %10 = tail call i32 (ptr, ptr, ...) @fprintf(ptr noundef %9, ptr noundef nonnull @.str.9, i64 noundef 24) #23
  tail call fastcc void @graphviz_exit() #24
  unreachable

gv_alloc.exit:                                    ; preds = %5
  %.not = icmp eq ptr %0, null
  br i1 %.not, label %11, label %gv_strdup.exit

11:                                               ; preds = %gv_alloc.exit
  switch i16 %1, label %45 [
    i16 258, label %sortToStr.exit
    i16 259, label %12
    i16 260, label %13
    i16 261, label %14
    i16 287, label %15
    i16 262, label %16
    i16 263, label %17
    i16 264, label %18
    i16 265, label %19
    i16 266, label %20
    i16 267, label %21
    i16 268, label %22
    i16 269, label %23
    i16 270, label %24
    i16 271, label %25
    i16 272, label %26
    i16 273, label %27
    i16 274, label %28
    i16 275, label %29
    i16 276, label %30
    i16 277, label %31
    i16 278, label %32
    i16 279, label %33
    i16 280, label %34
    i16 281, label %35
    i16 282, label %36
    i16 283, label %37
    i16 284, label %38
    i16 285, label %39
    i16 286, label %40
    i16 288, label %41
    i16 289, label %42
    i16 91, label %43
    i16 93, label %44
  ]

12:                                               ; preds = %11
  br label %sortToStr.exit

13:                                               ; preds = %11
  br label %sortToStr.exit

14:                                               ; preds = %11
  br label %sortToStr.exit

15:                                               ; preds = %11
  br label %sortToStr.exit

16:                                               ; preds = %11
  br label %sortToStr.exit

17:                                               ; preds = %11
  br label %sortToStr.exit

18:                                               ; preds = %11
  br label %sortToStr.exit

19:                                               ; preds = %11
  br label %sortToStr.exit

20:                                               ; preds = %11
  br label %sortToStr.exit

21:                                               ; preds = %11
  br label %sortToStr.exit

22:                                               ; preds = %11
  br label %sortToStr.exit

23:                                               ; preds = %11
  br label %sortToStr.exit

24:                                               ; preds = %11
  br label %sortToStr.exit

25:                                               ; preds = %11
  br label %sortToStr.exit

26:                                               ; preds = %11
  br label %sortToStr.exit

27:                                               ; preds = %11
  br label %sortToStr.exit

28:                                               ; preds = %11
  br label %sortToStr.exit

29:                                               ; preds = %11
  br label %sortToStr.exit

30:                                               ; preds = %11
  br label %sortToStr.exit

31:                                               ; preds = %11
  br label %sortToStr.exit

32:                                               ; preds = %11
  br label %sortToStr.exit

33:                                               ; preds = %11
  br label %sortToStr.exit

34:                                               ; preds = %11
  br label %sortToStr.exit

35:                                               ; preds = %11
  br label %sortToStr.exit

36:                                               ; preds = %11
  br label %sortToStr.exit

37:                                               ; preds = %11
  br label %sortToStr.exit

38:                                               ; preds = %11
  br label %sortToStr.exit

39:                                               ; preds = %11
  br label %sortToStr.exit

40:                                               ; preds = %11
  br label %sortToStr.exit

41:                                               ; preds = %11
  br label %sortToStr.exit

42:                                               ; preds = %11
  br label %sortToStr.exit

43:                                               ; preds = %11
  br label %sortToStr.exit

44:                                               ; preds = %11
  br label %sortToStr.exit

45:                                               ; preds = %11
  br label %sortToStr.exit

sortToStr.exit:                                   ; preds = %11, %12, %13, %14, %15, %16, %17, %18, %19, %20, %21, %22, %23, %24, %25, %26, %27, %28, %29, %30, %31, %32, %33, %34, %35, %36, %37, %38, %39, %40, %41, %42, %43, %44, %45
  %.0.i = phi ptr [ null, %45 ], [ @.str.43, %44 ], [ @.str.42, %43 ], [ @.str.41, %42 ], [ @.str.40, %41 ], [ @.str.39, %40 ], [ @.str.38, %39 ], [ @.str.37, %38 ], [ @.str.36, %37 ], [ @.str.35, %36 ], [ @.str.34, %35 ], [ @.str.33, %34 ], [ @.str.32, %33 ], [ @.str.31, %32 ], [ @.str.30, %31 ], [ @.str.29, %30 ], [ @.str.28, %29 ], [ @.str.27, %28 ], [ @.str.26, %27 ], [ @.str.25, %26 ], [ @.str.24, %25 ], [ @.str.23, %24 ], [ @.str.22, %23 ], [ @.str.21, %22 ], [ @.str.20, %21 ], [ @.str.19, %20 ], [ @.str.18, %19 ], [ @.str.17, %18 ], [ @.str.16, %17 ], [ @.str.15, %16 ], [ @.str.1, %15 ], [ @.str.14, %14 ], [ @.str.13, %13 ], [ @.str.12, %12 ], [ @.str.11, %11 ]
  %46 = tail call noalias ptr @strdup(ptr noundef readonly %.0.i) #20
  %47 = icmp eq ptr %46, null
  br i1 %47, label %48, label %gv_strdup.exit

48:                                               ; preds = %sortToStr.exit
  %49 = load ptr, ptr @stderr, align 8, !tbaa !39
  %50 = tail call i64 @strlen(ptr noundef nonnull readonly dereferenceable(1) %.0.i) #26
  %51 = add i64 %50, 1
  %52 = tail call i32 (ptr, ptr, ...) @fprintf(ptr noundef %49, ptr noundef nonnull @.str.9, i64 noundef %51) #23
  tail call fastcc void @graphviz_exit() #24
  unreachable

gv_strdup.exit:                                   ; preds = %sortToStr.exit, %gv_alloc.exit
  %.0 = phi ptr [ %0, %gv_alloc.exit ], [ %46, %sortToStr.exit ]
  %53 = getelementptr inbounds nuw i8, ptr %6, i64 2
  store i16 %1, ptr %53, align 2, !tbaa !43
  store i16 %2, ptr %6, align 8, !tbaa !14
  %54 = getelementptr inbounds nuw i8, ptr %6, i64 8
  store ptr %.0, ptr %54, align 8, !tbaa !19
  %.not20 = icmp eq ptr %3, null
  br i1 %.not20, label %55, label %60

55:                                               ; preds = %gv_strdup.exit
  %.not21 = icmp eq ptr %4, null
  br i1 %.not21, label %60, label %56

56:                                               ; preds = %55
  %57 = getelementptr i8, ptr %4, i64 16
  %.val = load i64, ptr %57, align 8, !tbaa !4
  %58 = icmp eq i64 %.val, 0
  br i1 %58, label %59, label %60

59:                                               ; preds = %56
  tail call fastcc void @attrs_free(ptr noundef nonnull %4)
  tail call void @free(ptr noundef nonnull %4) #20
  br label %60

60:                                               ; preds = %55, %56, %59, %gv_strdup.exit
  %.016.sink = phi ptr [ %3, %gv_strdup.exit ], [ null, %59 ], [ %4, %56 ], [ null, %55 ]
  %61 = getelementptr inbounds nuw i8, ptr %6, i64 16
  store ptr %.016.sink, ptr %61, align 8, !tbaa !18
  ret ptr %6
}